target datalayout = "e-m:e-p270:32:32-p271:32:32-p272:64:64-i64:64-i128:128-f80:128-n8:16:32:64-S128"
target triple = "x86_64-pc-linux-gnu"

%struct._GList = type { ptr, ptr, ptr }

@streamid_hash = internal global ptr null, align 8

; Function Attrs: null_pointer_is_valid sspstrong uwtable
define internal zeroext i1 @is_http2_stream_contains(i32 noundef %0, i32 noundef %1) #1 {
  %3 = alloca i1, align 1
  %4 = alloca i32, align 4
  %5 = alloca i32, align 4
  %6 = alloca ptr, align 8
  %7 = alloca i32, align 4
  store i32 %0, ptr %4, align 4
  store i32 %1, ptr %5, align 4
  call void @llvm.lifetime.start.p0(i64 8, ptr %6) #7
  %8 = load ptr, ptr @streamid_hash, align 8
  %9 = load i32, ptr %4, align 4
  %10 = zext i32 %9 to i64
  %11 = inttoptr i64 %10 to ptr
  %12 = call ptr @g_hash_table_lookup(ptr noundef %8, ptr noundef %11)
  store ptr %12, ptr %6, align 8
  %13 = load ptr, ptr %6, align 8
  %14 = icmp eq ptr %13, null
  br i1 %14, label %15, label %16

15:                                               ; preds = %2
  store i1 false, ptr %3, align 1
  store i32 1, ptr %7, align 4
  br label %25

16:                                               ; preds = %2
  %17 = load ptr, ptr %6, align 8
  %18 = load i32, ptr %5, align 4
  %19 = sext i32 %18 to i64
  %20 = inttoptr i64 %19 to ptr
  %21 = call i32 @g_hash_table_contains(ptr noundef %17, ptr noundef %20)
  %22 = icmp ne i32 %21, 0
  br i1 %22, label %24, label %23

23:                                               ; preds = %16
  store i1 false, ptr %3, align 1
  store i32 1, ptr %7, align 4
  br label %25

24:                                               ; preds = %16
  store i1 true, ptr %3, align 1
  store i32 1, ptr %7, align 4
  br label %25

25:                                               ; preds = %24, %23, %15
  call void @llvm.lifetime.end.p0(i64 8, ptr %6) #7
  %26 = load i1, ptr %3, align 1
  ret i1 %26
}

; Function Attrs: null_pointer_is_valid sspstrong uwtable
define internal i32 @get_http2_stream_count(i32 noundef %0) #1 {
  %2 = alloca i32, align 4
  %3 = alloca i32, align 4
  %4 = alloca i32, align 4
  %5 = alloca ptr, align 8
  %6 = alloca ptr, align 8
  %7 = alloca ptr, align 8
  store i32 %0, ptr %2, align 4
  call void @llvm.lifetime.start.p0(i64 4, ptr %3) #7
  store i32 0, ptr %3, align 4
  call void @llvm.lifetime.start.p0(i64 4, ptr %4) #7
  call void @llvm.lifetime.start.p0(i64 8, ptr %5) #7
  call void @llvm.lifetime.start.p0(i64 8, ptr %6) #7
  call void @llvm.lifetime.start.p0(i64 8, ptr %7) #7
  %8 = load ptr, ptr @streamid_hash, align 8
  %9 = load i32, ptr %2, align 4
  %10 = zext i32 %9 to i64
  %11 = inttoptr i64 %10 to ptr
  %12 = call ptr @g_hash_table_lookup(ptr noundef %8, ptr noundef %11)
  store ptr %12, ptr %5, align 8
  %13 = load ptr, ptr %5, align 8
  %14 = icmp ne ptr %13, null
  br i1 %14, label %15, label %43

15:                                               ; preds = %1
  %16 = load ptr, ptr %5, align 8
  %17 = call ptr @g_hash_table_get_keys(ptr noundef %16)
  store ptr %17, ptr %6, align 8
  %18 = load ptr, ptr %6, align 8
  store ptr %18, ptr %7, align 8
  br label %19

19:                                               ; preds = %37, %15
  %20 = load ptr, ptr %7, align 8
  %21 = icmp ne ptr %20, null
  br i1 %21, label %22, label %41

22:                                               ; preds = %19
  %23 = load ptr, ptr %7, align 8
  %24 = getelementptr inbounds nuw %struct._GList, ptr %23, i32 0, i32 0
  %25 = load ptr, ptr %24, align 8
  %26 = ptrtoint ptr %25 to i64
  %27 = trunc i64 %26 to i32
  store i32 %27, ptr %4, align 4
  %28 = load i32, ptr %4, align 4
  %29 = load i32, ptr %3, align 4
  %30 = icmp ugt i32 %28, %29
  br i1 %30, label %31, label %33

31:                                               ; preds = %22
  %32 = load i32, ptr %4, align 4
  br label %35

33:                                               ; preds = %22
  %34 = load i32, ptr %3, align 4
  br label %35

35:                                               ; preds = %33, %31
  %36 = phi i32 [ %32, %31 ], [ %34, %33 ]
  store i32 %36, ptr %3, align 4
  br label %37

37:                                               ; preds = %35
  %38 = load ptr, ptr %7, align 8
  %39 = getelementptr inbounds nuw %struct._GList, ptr %38, i32 0, i32 1
  %40 = load ptr, ptr %39, align 8
  store ptr %40, ptr %7, align 8
  br label %19, !llvm.loop !8

41:                                               ; preds = %19
  %42 = load ptr, ptr %6, align 8
  call void @g_list_free(ptr noundef %42)
  br label %43

43:                                               ; preds = %41, %1
  %44 = load i32, ptr %3, align 4
  call void @llvm.lifetime.end.p0(i64 8, ptr %7) #7
  call void @llvm.lifetime.end.p0(i64 8, ptr %6) #7
  call void @llvm.lifetime.end.p0(i64 8, ptr %5) #7
  call void @llvm.lifetime.end.p0(i64 4, ptr %4) #7
  call void @llvm.lifetime.end.p0(i64 4, ptr %3) #7
  ret i32 %44
}

; Function Attrs: null_pointer_is_valid sspstrong uwtable
define zeroext i1 @http2_get_stream_id_le(i32 noundef %0, i32 noundef %1, ptr noundef %2) #1 {
  %4 = alloca i1, align 1
  %5 = alloca i32, align 4
  %6 = alloca i32, align 4
  %7 = alloca ptr, align 8
  %8 = alloca i32, align 4
  %9 = alloca i32, align 4
  %10 = alloca i32, align 4
  store i32 %0, ptr %5, align 4
  store i32 %1, ptr %6, align 4
  store ptr %2, ptr %7, align 8
  call void @llvm.lifetime.start.p0(i64 4, ptr %8) #7
  %11 = load i32, ptr %5, align 4
  %12 = call i32 @get_http2_stream_count(i32 noundef %11)
  store i32 %12, ptr %8, align 4
  call void @llvm.lifetime.start.p0(i64 4, ptr %9) #7
  %13 = load i32, ptr %6, align 4
  %14 = and i32 %13, 2147483647
  store i32 %14, ptr %9, align 4
  %15 = load i32, ptr %9, align 4
  %16 = load i32, ptr %8, align 4
  %17 = icmp sgt i32 %15, %16
  br i1 %17, label %18, label %20

18:                                               ; preds = %3
  %19 = load i32, ptr %8, align 4
  store i32 %19, ptr %9, align 4
  br label %20

20:                                               ; preds = %18, %3
  br label %21

21:                                               ; preds = %32, %20
  %22 = load i32, ptr %9, align 4
  %23 = icmp sge i32 %22, 0
  br i1 %23, label %24, label %35

24:                                               ; preds = %21
  %25 = load i32, ptr %5, align 4
  %26 = load i32, ptr %9, align 4
  %27 = call zeroext i1 @is_http2_stream_contains(i32 noundef %25, i32 noundef %26)
  br i1 %27, label %28, label %31

28:                                               ; preds = %24
  %29 = load i32, ptr %9, align 4
  %30 = load ptr, ptr %7, align 8
  store i32 %29, ptr %30, align 4
  store i1 true, ptr %4, align 1
  store i32 1, ptr %10, align 4
  br label %36

31:                                               ; preds = %24
  br label %32

32:                                               ; preds = %31
  %33 = load i32, ptr %9, align 4
  %34 = add i32 %33, -1
  store i32 %34, ptr %9, align 4
  br label %21, !llvm.loop !6

35:                                               ; preds = %21
  store i1 false, ptr %4, align 1
  store i32 1, ptr %10, align 4
  br label %36

36:                                               ; preds = %35, %28
  call void @llvm.lifetime.end.p0(i64 4, ptr %9) #7
  call void @llvm.lifetime.end.p0(i64 4, ptr %8) #7
  %37 = load i1, ptr %4, align 1
  ret i1 %37
}