; Function Attrs: null_pointer_is_valid sspstrong uwtable
define noundef zeroext i1 @http2_get_stream_id_le(i32 noundef %0, i32 noundef %1, ptr noundef writeonly captures(none) %2) local_unnamed_addr #1 {
  %4 = load ptr, ptr @streamid_hash, align 8
  %5 = zext i32 %0 to i64
  %6 = inttoptr i64 %5 to ptr
  %7 = tail call ptr @g_hash_table_lookup(ptr noundef %4, ptr noundef %6)
  %.not.i = icmp eq ptr %7, null
  br i1 %.not.i, label %.lr.ph.preheader, label %8

8:                                                ; preds = %3
  %9 = tail call ptr @g_hash_table_get_keys(ptr noundef nonnull %7)
  %.not1415.i = icmp eq ptr %9, null
  br i1 %.not1415.i, label %get_http2_stream_count.exit.thread24, label %.lr.ph.i

get_http2_stream_count.exit.thread24:             ; preds = %8
  tail call void @g_list_free(ptr noundef %9)
  br label %.lr.ph.preheader

.lr.ph.i:                                         ; preds = %8, %.lr.ph.i
  %.017.i = phi ptr [ %15, %.lr.ph.i ], [ %9, %8 ]
  %.116.i = phi i32 [ %13, %.lr.ph.i ], [ 0, %8 ]
  %10 = load ptr, ptr %.017.i, align 8
  %11 = ptrtoint ptr %10 to i64
  %12 = trunc i64 %11 to i32
  %13 = tail call i32 @llvm.umax.i32(i32 %.116.i, i32 %12)
  %14 = getelementptr inbounds nuw i8, ptr %.017.i, i64 8
  %15 = load ptr, ptr %14, align 8
  %.not14.i = icmp eq ptr %15, null
  br i1 %.not14.i, label %get_http2_stream_count.exit, label %.lr.ph.i, !llvm.loop !6

get_http2_stream_count.exit:                      ; preds = %.lr.ph.i
  tail call void @g_list_free(ptr noundef nonnull %9)
  %16 = icmp sgt i32 %13, -1
  br i1 %16, label %.lr.ph.preheader, label %.loopexit

.lr.ph.preheader:                                 ; preds = %3, %get_http2_stream_count.exit.thread24, %get_http2_stream_count.exit
  %.012.i23 = phi i32 [ %13, %get_http2_stream_count.exit ], [ 0, %get_http2_stream_count.exit.thread24 ], [ 0, %3 ]
  %17 = and i32 %1, 2147483647
  %18 = tail call i32 @llvm.umin.i32(i32 %17, i32 %.012.i23)
  %19 = zext nneg i32 %18 to i64
  br label %.lr.ph

.lr.ph:                                           ; preds = %.lr.ph.preheader, %is_http2_stream_contains.exit.thread
  %indvars.iv = phi i64 [ %19, %.lr.ph.preheader ], [ %indvars.iv.next, %is_http2_stream_contains.exit.thread ]
  %20 = load ptr, ptr @streamid_hash, align 8
  %21 = tail call ptr @g_hash_table_lookup(ptr noundef %20, ptr noundef %6)
  %22 = icmp eq ptr %21, null
  br i1 %22, label %is_http2_stream_contains.exit.thread, label %is_http2_stream_contains.exit

is_http2_stream_contains.exit:                    ; preds = %.lr.ph
  %23 = inttoptr i64 %indvars.iv to ptr
  %24 = tail call i32 @g_hash_table_contains(ptr noundef nonnull %21, ptr noundef %23)
  %.not.i14.not = icmp eq i32 %24, 0
  br i1 %.not.i14.not, label %is_http2_stream_contains.exit.thread, label %25

25:                                               ; preds = %is_http2_stream_contains.exit
  %26 = trunc nuw i64 %indvars.iv to i32
  store i32 %26, ptr %2, align 4
  br label %.loopexit

is_http2_stream_contains.exit.thread:             ; preds = %.lr.ph, %is_http2_stream_contains.exit
  %indvars.iv.next = add nsw i64 %indvars.iv, -1
  %27 = trunc nuw i64 %indvars.iv to i32
  %28 = icmp sgt i32 %27, 0
  br i1 %28, label %.lr.ph, label %.loopexit, !llvm.loop !8

.loopexit:                                        ; preds = %is_http2_stream_contains.exit.thread, %get_http2_stream_count.exit, %25
  %29 = phi i1 [ true, %25 ], [ false, %get_http2_stream_count.exit ], [ false, %is_http2_stream_contains.exit.thread ]
  ret i1 %29
}